; Function Attrs: nounwind uwtable
define internal fastcc noundef zeroext i1 @vu_set_vring_call_exec(ptr noundef %0, ptr noundef nonnull readonly captures(none) %1) unnamed_addr #3 {
  %3 = getelementptr inbounds nuw i8, ptr %1, i64 12
  %4 = load i64, ptr %3, align 1
  %5 = and i64 %4, 256
  %.not = icmp eq i64 %5, 0
  %6 = tail call fastcc zeroext i1 @vu_check_queue_msg_file(ptr noundef %0, ptr noundef %1)
  br i1 %6, label %7, label %33

7:                                                ; preds = %2
  %8 = and i64 %4, 255
  %9 = getelementptr inbounds nuw i8, ptr %0, i64 16
  %10 = load ptr, ptr %9, align 8
  %11 = getelementptr inbounds nuw %struct.VuVirtq, ptr %10, i64 %8, i32 13
  %12 = load i32, ptr %11, align 8
  %.not18 = icmp eq i32 %12, -1
  br i1 %.not18, label %17, label %13

13:                                               ; preds = %7
  %14 = tail call i32 @close(i32 noundef %12) #21
  %15 = load ptr, ptr %9, align 8
  %16 = getelementptr inbounds nuw %struct.VuVirtq, ptr %15, i64 %8, i32 13
  store i32 -1, ptr %16, align 8
  br label %17

17:                                               ; preds = %13, %7
  br i1 %.not, label %18, label %21

18:                                               ; preds = %17
  %19 = getelementptr inbounds nuw i8, ptr %1, i64 284
  %20 = load i32, ptr %19, align 1
  br label %21

21:                                               ; preds = %17, %18
  %22 = phi i32 [ %20, %18 ], [ -1, %17 ]
  %23 = load ptr, ptr %9, align 8
  %24 = getelementptr inbounds nuw %struct.VuVirtq, ptr %23, i64 %8, i32 13
  store i32 %22, ptr %24, align 8
  %25 = load ptr, ptr %9, align 8
  %26 = getelementptr inbounds nuw %struct.VuVirtq, ptr %25, i64 %8, i32 13
  %27 = load i32, ptr %26, align 8
  %.not19 = icmp eq i32 %27, -1
  br i1 %.not19, label %32, label %28

28:                                               ; preds = %21
  %29 = getelementptr inbounds nuw i8, ptr %1, i64 284
  %30 = load i32, ptr %29, align 1
  %31 = tail call i32 @eventfd_write(i32 noundef %30, i64 noundef 1) #21
  %.not20 = icmp eq i32 %31, 0
  br i1 %.not20, label %32, label %33

32:                                               ; preds = %21, %28
  br label %33

33:                                               ; preds = %28, %2, %32
  %.0 = phi i1 [ false, %32 ], [ false, %2 ], [ true, %28 ]
  ret i1 %.0
}